target datalayout = "e-m:e-p270:32:32-p271:32:32-p272:64:64-i64:64-i128:128-f80:128-n8:16:32:64-S128"
target triple = "x86_64-pc-linux-gnu"

%struct.H5HF_hdr_t = type { %struct.H5C_cache_entry_t, i32, i32, i8, i8, i8, i8, %struct.H5HF_dtable_t, i64, i64, i32, i64, i64, %struct.H5O_pline_t, i64, i32, i64, i64, i64, i64, i64, i64, i64, i64, i64, i64, i64, i32, ptr, i64, i8, i8, i8, ptr, i32, ptr, %struct.H5HF_block_iter_t, ptr, i64, i8, i8, i64, i8, i8, i8, i8 }
%struct.H5C_cache_entry_t = type { ptr, i64, i64, ptr, i8, ptr, i8, i8, i8, i8, i32, i8, i8, i8, i8, i8, i32, ptr, i32, i32, i32, i32, i32, i8, i8, ptr, ptr, ptr, ptr, ptr, ptr, i8, i32, i8, i64, ptr, i64, i64, i32, i8, i32, i32, i8, ptr, ptr, ptr }
%struct.H5HF_dtable_t = type { %struct.H5HF_dtable_cparam_t, i64, i32, i32, i32, i32, i32, i32, i32, i64, ptr, ptr, ptr, ptr }
%struct.H5HF_dtable_cparam_t = type { i32, i64, i64, i32, i32 }
%struct.H5O_pline_t = type { %struct.H5O_shared_t, i32, i64, i64, ptr }
%struct.H5O_shared_t = type { i32, ptr, i32, %union.anon }
%union.anon = type { %struct.H5O_mesg_loc_t }
%struct.H5O_mesg_loc_t = type { i32, i64 }
%struct.H5HF_block_iter_t = type { i8, ptr }
%struct.H5HF_huge_remove_ud_t = type { ptr, i64 }

@H5HF_init_g = external global i8, align 1
@H5_libterm_g = external global i8, align 1
@.str = private unnamed_addr constant [102 x i8] c"generated/home/dtcxzyw/WorkSpace/Projects/compilers/llvm-opt-benchmark/bench/hdf5/hdf5/src/H5HFhuge.c\00", align 1
@H5E_HEAP_g = external global i64, align 8
@H5E_CANTDELETE_g = external global i64, align 8
@.str.16 = private unnamed_addr constant [23 x i8] c"can't delete v2 B-tree\00", align 1
@__func__.H5HF__huge_delete = private unnamed_addr constant [18 x i8] c"H5HF__huge_delete\00", align 1

; Function Attrs: nounwind uwtable
define i32 @H5HF__huge_delete(ptr noundef %0) #0 {
  %2 = alloca ptr, align 8
  %3 = alloca %struct.H5HF_huge_remove_ud_t, align 8
  %4 = alloca ptr, align 8
  %5 = alloca i32, align 4
  %6 = alloca i8, align 1
  store ptr %0, ptr %2, align 8, !tbaa !3
  call void @llvm.lifetime.start.p0(i64 16, ptr %3) #6
  call void @llvm.lifetime.start.p0(i64 8, ptr %4) #6
  call void @llvm.lifetime.start.p0(i64 4, ptr %5) #6
  store i32 0, ptr %5, align 4, !tbaa !45
  call void @llvm.lifetime.start.p0(i64 1, ptr %6) #6
  store i8 0, ptr %6, align 1, !tbaa !8
  %7 = load i8, ptr @H5HF_init_g, align 1, !tbaa !8, !range !10, !noundef !11
  %8 = trunc i8 %7 to i1
  br i1 %8, label %13, label %9

9:                                                ; preds = %1
  %10 = load i8, ptr @H5_libterm_g, align 1, !tbaa !8, !range !10, !noundef !11
  %11 = trunc i8 %10 to i1
  %12 = xor i1 %11, true
  br label %13

13:                                               ; preds = %9, %1
  %14 = phi i1 [ true, %1 ], [ %12, %9 ]
  %15 = xor i1 %14, true
  %16 = xor i1 %15, true
  %17 = zext i1 %16 to i32
  %18 = sext i32 %17 to i64
  %19 = call i64 @llvm.expect.i64(i64 %18, i64 1)
  %20 = icmp ne i64 %19, 0
  br i1 %20, label %21, label %78

21:                                               ; preds = %13
  %22 = load ptr, ptr %2, align 8, !tbaa !3
  %23 = getelementptr inbounds nuw %struct.H5HF_huge_remove_ud_t, ptr %3, i32 0, i32 0
  store ptr %22, ptr %23, align 8, !tbaa !101
  %24 = load ptr, ptr %2, align 8, !tbaa !3
  %25 = getelementptr inbounds nuw %struct.H5HF_hdr_t, ptr %24, i32 0, i32 40
  %26 = load i8, ptr %25, align 1, !tbaa !37, !range !10, !noundef !11
  %27 = trunc i8 %26 to i1
  br i1 %27, label %28, label %36

28:                                               ; preds = %21
  %29 = load ptr, ptr %2, align 8, !tbaa !3
  %30 = getelementptr inbounds nuw %struct.H5HF_hdr_t, ptr %29, i32 0, i32 2
  %31 = load i32, ptr %30, align 4, !tbaa !12
  %32 = icmp ugt i32 %31, 0
  br i1 %32, label %33, label %34

33:                                               ; preds = %28
  store ptr @H5HF__huge_bt2_filt_dir_remove, ptr %4, align 8, !tbaa !42
  br label %35

34:                                               ; preds = %28
  store ptr @H5HF__huge_bt2_dir_remove, ptr %4, align 8, !tbaa !42
  br label %35

35:                                               ; preds = %34, %33
  br label %44

36:                                               ; preds = %21
  %37 = load ptr, ptr %2, align 8, !tbaa !3
  %38 = getelementptr inbounds nuw %struct.H5HF_hdr_t, ptr %37, i32 0, i32 2
  %39 = load i32, ptr %38, align 4, !tbaa !12
  %40 = icmp ugt i32 %39, 0
  br i1 %40, label %41, label %42

41:                                               ; preds = %36
  store ptr @H5HF__huge_bt2_filt_indir_remove, ptr %4, align 8, !tbaa !42
  br label %43

42:                                               ; preds = %36
  store ptr @H5HF__huge_bt2_indir_remove, ptr %4, align 8, !tbaa !42
  br label %43

43:                                               ; preds = %42, %41
  br label %44

44:                                               ; preds = %43, %35
  %45 = load ptr, ptr %2, align 8, !tbaa !3
  %46 = getelementptr inbounds nuw %struct.H5HF_hdr_t, ptr %45, i32 0, i32 28
  %47 = load ptr, ptr %46, align 8, !tbaa !47
  %48 = load ptr, ptr %2, align 8, !tbaa !3
  %49 = getelementptr inbounds nuw %struct.H5HF_hdr_t, ptr %48, i32 0, i32 12
  %50 = load i64, ptr %49, align 8, !tbaa !46
  %51 = load ptr, ptr %2, align 8, !tbaa !3
  %52 = getelementptr inbounds nuw %struct.H5HF_hdr_t, ptr %51, i32 0, i32 28
  %53 = load ptr, ptr %52, align 8, !tbaa !47
  %54 = load ptr, ptr %4, align 8, !tbaa !42
  %55 = call i32 @H5B2_delete(ptr noundef %47, i64 noundef %50, ptr noundef %53, ptr noundef %54, ptr noundef %3)
  %56 = icmp slt i32 %55, 0
  br i1 %56, label %57, label %76

57:                                               ; preds = %44
  br label %58

58:                                               ; preds = %57
  br label %59

59:                                               ; preds = %58
  br label %60

60:                                               ; preds = %59
  %61 = load i64, ptr @H5E_HEAP_g, align 8, !tbaa !41
  %62 = load i64, ptr @H5E_CANTDELETE_g, align 8, !tbaa !41
  %63 = call i32 (ptr, ptr, i32, i64, i64, ptr, ...) @H5E_printf_stack(ptr noundef @.str, ptr noundef @__func__.H5HF__huge_delete, i32 noundef 1132, i64 noundef %61, i64 noundef %62, ptr noundef @.str.16)
  br label %64

64:                                               ; preds = %60
  br label %65

65:                                               ; preds = %64
  store i8 1, ptr %6, align 1, !tbaa !8
  %66 = load i8, ptr %6, align 1, !tbaa !8, !range !10, !noundef !11
  %67 = trunc i8 %66 to i1
  %68 = zext i1 %67 to i8
  store i8 %68, ptr %6, align 1, !tbaa !8
  br label %69

69:                                               ; preds = %65
  br label %70

70:                                               ; preds = %69
  br label %71

71:                                               ; preds = %70
  store i32 -1, ptr %5, align 4, !tbaa !45
  br label %77

72:                                               ; No predecessors!
  br label %73

73:                                               ; preds = %72
  br label %74

74:                                               ; preds = %73
  br label %75

75:                                               ; preds = %74
  br label %76

76:                                               ; preds = %75, %44
  br label %77

77:                                               ; preds = %76, %71
  br label %78

78:                                               ; preds = %77, %13
  %79 = load i32, ptr %5, align 4, !tbaa !45
  call void @llvm.lifetime.end.p0(i64 1, ptr %6) #6
  call void @llvm.lifetime.end.p0(i64 4, ptr %5) #6
  call void @llvm.lifetime.end.p0(i64 8, ptr %4) #6
  call void @llvm.lifetime.end.p0(i64 16, ptr %3) #6
  ret i32 %79
}