; Function Attrs: nounwind uwtable
define range(i32 -1, 1) i32 @H5HF__huge_delete(ptr noundef %0) local_unnamed_addr #1 {
  %2 = alloca %struct.H5HF_huge_remove_ud_t, align 8
  call void @llvm.lifetime.start.p0(i64 16, ptr nonnull %2) #6
  %3 = load i8, ptr @H5HF_init_g, align 1, !tbaa !3, !range !7, !noundef !8
  %4 = trunc nuw i8 %3 to i1
  %5 = load i8, ptr @H5_libterm_g, align 1, !range !7
  %6 = trunc nuw i8 %5 to i1
  %7 = xor i1 %6, true
  %8 = select i1 %4, i1 true, i1 %7
  br i1 %8, label %9, label %25, !prof !9

9:                                                ; preds = %1
  store ptr %0, ptr %2, align 8, !tbaa !93
  %10 = getelementptr inbounds nuw i8, ptr %0, i64 681
  %11 = load i8, ptr %10, align 1, !tbaa !36, !range !7, !noundef !8
  %12 = trunc nuw i8 %11 to i1
  %13 = getelementptr inbounds nuw i8, ptr %0, i64 252
  %14 = load i32, ptr %13, align 4, !tbaa !10
  %.not10 = icmp eq i32 %14, 0
  %H5HF__huge_bt2_dir_remove.H5HF__huge_bt2_filt_dir_remove = select i1 %.not10, ptr @H5HF__huge_bt2_dir_remove, ptr @H5HF__huge_bt2_filt_dir_remove
  %H5HF__huge_bt2_indir_remove.H5HF__huge_bt2_filt_indir_remove = select i1 %.not10, ptr @H5HF__huge_bt2_indir_remove, ptr @H5HF__huge_bt2_filt_indir_remove
  %.09 = select i1 %12, ptr %H5HF__huge_bt2_dir_remove.H5HF__huge_bt2_filt_dir_remove, ptr %H5HF__huge_bt2_indir_remove.H5HF__huge_bt2_filt_indir_remove
  %15 = getelementptr inbounds nuw i8, ptr %0, i64 600
  %16 = load ptr, ptr %15, align 8, !tbaa !51
  %17 = getelementptr inbounds nuw i8, ptr %0, i64 408
  %18 = load i64, ptr %17, align 8, !tbaa !43
  %19 = call i32 @H5B2_delete(ptr noundef %16, i64 noundef %18, ptr noundef %16, ptr noundef nonnull %.09, ptr noundef nonnull %2) #6
  %20 = icmp slt i32 %19, 0
  br i1 %20, label %21, label %25

21:                                               ; preds = %9
  %22 = load i64, ptr @H5E_HEAP_g, align 8, !tbaa !52
  %23 = load i64, ptr @H5E_CANTDELETE_g, align 8, !tbaa !52
  %24 = call i32 (ptr, ptr, i32, i64, i64, ptr, ...) @H5E_printf_stack(ptr noundef nonnull @.str, ptr noundef nonnull @__func__.H5HF__huge_delete, i32 noundef 1132, i64 noundef %22, i64 noundef %23, ptr noundef nonnull @.str.16) #6
  br label %25

25:                                               ; preds = %21, %9, %1
  %.0 = phi i32 [ -1, %21 ], [ 0, %9 ], [ 0, %1 ]
  call void @llvm.lifetime.end.p0(i64 16, ptr nonnull %2) #6
  ret i32 %.0
}